; Function Attrs: nounwind uwtable
define range(i32 0, 2) i32 @jsimd_can_idct_ifast() local_unnamed_addr #0 {
  tail call fastcc void @init_simd()
  %1 = tail call align 4 ptr @llvm.threadlocal.address.p0(ptr align 4 @simd_support)
  %2 = load i32, ptr %1, align 4, !tbaa !3
  %3 = and i32 %2, 8
  %4 = icmp ne i32 %3, 0
  %5 = and i64 ptrtoint (ptr @jconst_idct_ifast_sse2 to i64), 12
  %6 = icmp eq i64 %5, 0
  %or.cond = and i1 %6, %4
  %. = zext i1 %or.cond to i32
  ret i32 %.
}